target datalayout = "e-m:e-p270:32:32-p271:32:32-p272:64:64-i64:64-i128:128-f80:128-n8:16:32:64-S128"
target triple = "x86_64-pc-linux-gnu"

%struct.H5HF_hdr_t = type { %struct.H5C_cache_entry_t, i32, i32, i8, i8, i8, i8, %struct.H5HF_dtable_t, i64, i64, i32, i64, i64, %struct.H5O_pline_t, i64, i32, i64, i64, i64, i64, i64, i64, i64, i64, i64, i64, i64, i32, ptr, i64, i8, i8, i8, ptr, i32, ptr, %struct.H5HF_block_iter_t, ptr, i64, i8, i8, i64, i8, i8, i8, i8 }
%struct.H5C_cache_entry_t = type { ptr, i64, i64, ptr, i8, ptr, i8, i8, i8, i8, i32, i8, i8, i8, i8, i8, i32, ptr, i32, i32, i32, i32, i32, i8, i8, ptr, ptr, ptr, ptr, ptr, ptr, i8, i32, i8, i64, ptr, i64, i64, i32, i8, i32, i32, i8, ptr, ptr, ptr }
%struct.H5HF_dtable_t = type { %struct.H5HF_dtable_cparam_t, i64, i32, i32, i32, i32, i32, i32, i32, i64, ptr, ptr, ptr, ptr }
%struct.H5HF_dtable_cparam_t = type { i32, i64, i64, i32, i32 }
%struct.H5O_pline_t = type { %struct.H5O_shared_t, i32, i64, i64, ptr }
%struct.H5O_shared_t = type { i32, ptr, i32, %union.anon }
%union.anon = type { %struct.H5O_mesg_loc_t }
%struct.H5O_mesg_loc_t = type { i32, i64 }
%struct.H5HF_block_iter_t = type { i8, ptr }

; Function Attrs: nounwind uwtable
define i32 @H5HF__tiny_init(ptr noundef %0) #0 {
  %2 = alloca ptr, align 8
  store ptr %0, ptr %2, align 8
  %3 = load ptr, ptr %2, align 8
  %4 = getelementptr inbounds %struct.H5HF_hdr_t, ptr %3, i32 0, i32 1
  %5 = load i32, ptr %4, align 8
  %6 = sub i32 %5, 1
  %7 = icmp ule i32 %6, 16
  br i1 %7, label %8, label %18

8:                                                ; preds = %1
  %9 = load ptr, ptr %2, align 8
  %10 = getelementptr inbounds %struct.H5HF_hdr_t, ptr %9, i32 0, i32 1
  %11 = load i32, ptr %10, align 8
  %12 = sub i32 %11, 1
  %13 = zext i32 %12 to i64
  %14 = load ptr, ptr %2, align 8
  %15 = getelementptr inbounds %struct.H5HF_hdr_t, ptr %14, i32 0, i32 41
  store i64 %13, ptr %15, align 8
  %16 = load ptr, ptr %2, align 8
  %17 = getelementptr inbounds %struct.H5HF_hdr_t, ptr %16, i32 0, i32 42
  store i8 0, ptr %17, align 8
  br label %40

18:                                               ; preds = %1
  %19 = load ptr, ptr %2, align 8
  %20 = getelementptr inbounds %struct.H5HF_hdr_t, ptr %19, i32 0, i32 1
  %21 = load i32, ptr %20, align 8
  %22 = sub i32 %21, 1
  %23 = icmp eq i32 %22, 17
  br i1 %23, label %24, label %29

24:                                               ; preds = %18
  %25 = load ptr, ptr %2, align 8
  %26 = getelementptr inbounds %struct.H5HF_hdr_t, ptr %25, i32 0, i32 41
  store i64 16, ptr %26, align 8
  %27 = load ptr, ptr %2, align 8
  %28 = getelementptr inbounds %struct.H5HF_hdr_t, ptr %27, i32 0, i32 42
  store i8 0, ptr %28, align 8
  br label %39

29:                                               ; preds = %18
  %30 = load ptr, ptr %2, align 8
  %31 = getelementptr inbounds %struct.H5HF_hdr_t, ptr %30, i32 0, i32 1
  %32 = load i32, ptr %31, align 8
  %33 = sub i32 %32, 2
  %34 = zext i32 %33 to i64
  %35 = load ptr, ptr %2, align 8
  %36 = getelementptr inbounds %struct.H5HF_hdr_t, ptr %35, i32 0, i32 41
  store i64 %34, ptr %36, align 8
  %37 = load ptr, ptr %2, align 8
  %38 = getelementptr inbounds %struct.H5HF_hdr_t, ptr %37, i32 0, i32 42
  store i8 1, ptr %38, align 8
  br label %39

39:                                               ; preds = %29, %24
  br label %40

40:                                               ; preds = %39, %8
  ret i32 0
}