; Function Attrs: mustprogress nofree norecurse nosync nounwind willreturn memory(argmem: readwrite) uwtable
define noundef i32 @H5HF__tiny_init(ptr nocapture noundef %0) local_unnamed_addr #0 {
  %2 = getelementptr inbounds i8, ptr %0, i64 248
  %3 = load i32, ptr %2, align 8
  %4 = add i32 %3, -1
  %5 = icmp ugt i32 %4, 16
  %.not = icmp eq i32 %4, 17
  %6 = add i32 %3, -2
  %spec.select = select i1 %.not, i32 16, i32 %6
  %.sink11.shrunk = select i1 %5, i32 %spec.select, i32 %4
  %narrow = icmp ugt i32 %4, 17
  %.sink = zext i1 %narrow to i8
  %.sink11 = zext i32 %.sink11.shrunk to i64
  %7 = getelementptr inbounds i8, ptr %0, i64 688
  store i64 %.sink11, ptr %7, align 8
  %8 = getelementptr inbounds i8, ptr %0, i64 696
  store i8 %.sink, ptr %8, align 8
  ret i32 0
}